; Function Attrs: nounwind uwtable
define internal fastcc ptr @_init_l_Lean_Elab_WF_initFn____x40_Lean_Elab_PreDefinition_WF_Fix___hyg_6____closed__12() unnamed_addr #1 {
  %1 = load ptr, ptr @l_Lean_Elab_WF_initFn____x40_Lean_Elab_PreDefinition_WF_Fix___hyg_6____closed__9, align 8, !tbaa !12
  %2 = load ptr, ptr @l_Lean_Elab_WF_initFn____x40_Lean_Elab_PreDefinition_WF_Fix___hyg_6____closed__10, align 8, !tbaa !12
  %3 = load ptr, ptr @l_Lean_Elab_WF_initFn____x40_Lean_Elab_PreDefinition_WF_Fix___hyg_6____closed__11, align 8, !tbaa !12
  %4 = load ptr, ptr @l_Lean_Elab_WF_initFn____x40_Lean_Elab_PreDefinition_WF_Fix___hyg_6____closed__1, align 8, !tbaa !12
  %5 = load ptr, ptr @l_Lean_Elab_WF_initFn____x40_Lean_Elab_PreDefinition_WF_Fix___hyg_6____closed__2, align 8, !tbaa !12
  %6 = load ptr, ptr @l_Lean_Elab_WF_initFn____x40_Lean_Elab_PreDefinition_WF_Fix___hyg_6____closed__3, align 8, !tbaa !12
  %7 = load ptr, ptr @l_Lean_Elab_WF_initFn____x40_Lean_Elab_PreDefinition_WF_Fix___hyg_6____closed__4, align 8, !tbaa !12
  %8 = tail call ptr @l_Lean_Name_mkStr7(ptr noundef %1, ptr noundef %2, ptr noundef %3, ptr noundef %4, ptr noundef %5, ptr noundef %6, ptr noundef %7) #5
  ret ptr %8
}